{
   LLVM 16 suppressions : ConstantExpr::GetElementPtr
   Memcheck:Cond
   fun:_ZN4llvm12ConstantExpr16getGetElementPtrEPNS_4TypeEPNS_8ConstantENS_8ArrayRefIPNS_5ValueEEEbSt8optionalIjES2_
   fun:_ZNK4llvm14ConstantFolder7FoldGEPEPNS_4TypeEPNS_5ValueENS_8ArrayRefIS4_EEb
   fun:_ZN5clang7CodeGen15CodeGenFunction15GetVTTParameterENS_10GlobalDeclEbb
   fun:_ZN12_GLOBAL__N_113ItaniumCXXABI18EmitDestructorCallERN5clang7CodeGen15CodeGenFunctionEPKNS1_17CXXDestructorDeclENS1_11CXXDtorTypeEbbNS2_7AddressENS1_8QualTypeE
   fun:_ZN12_GLOBAL__N_112CallBaseDtor4EmitERN5clang7CodeGen15CodeGenFunctionENS2_12EHScopeStack7Cleanup5FlagsE
   fun:_ZL11EmitCleanupRN5clang7CodeGen15CodeGenFunctionEPNS0_12EHScopeStack7CleanupENS4_5FlagsENS0_7AddressE
   fun:_ZN5clang7CodeGen15CodeGenFunction15PopCleanupBlockEb
   fun:_ZN5clang7CodeGen15CodeGenFunction16PopCleanupBlocksENS0_12EHScopeStack15stable_iteratorESt16initializer_listIPPN4llvm5ValueEE
   fun:_ZN5clang7CodeGen15CodeGenFunction16PopCleanupBlocksENS0_12EHScopeStack15stable_iteratorEmSt16initializer_listIPPN4llvm5ValueEE
   fun:_ZN5clang7CodeGen15CodeGenFunction18EmitDestructorBodyERNS0_15FunctionArgListE
   fun:_ZN5clang7CodeGen15CodeGenFunction12GenerateCodeENS_10GlobalDeclEPN4llvm8FunctionERKNS0_14CGFunctionInfoE
   fun:_ZN5clang7CodeGen13CodeGenModule18codegenCXXStructorENS_10GlobalDeclE
}

{
   LLVM 16 suppressions : CodeGen
   Memcheck:Cond
   fun:_ZN4llvm12ConstantExpr16getGetElementPtrEPNS_4TypeEPNS_8ConstantENS_8ArrayRefIPNS_5ValueEEEbSt8optionalIjES2_
   fun:_ZNK4llvm14ConstantFolder7FoldGEPEPNS_4TypeEPNS_5ValueENS_8ArrayRefIS4_EEb
   fun:_ZN5clang7CodeGen15CodeGenFunction15GetVTTParameterENS_10GlobalDeclEbb
   fun:_ZN12_GLOBAL__N_113ItaniumCXXABI26getImplicitConstructorArgsERN5clang7CodeGen15CodeGenFunctionEPKNS1_18CXXConstructorDeclENS1_11CXXCtorTypeEbb
   fun:_ZN5clang7CodeGen8CGCXXABI26addImplicitConstructorArgsERNS0_15CodeGenFunctionEPKNS_18CXXConstructorDeclENS_11CXXCtorTypeEbbRNS0_11CallArgListE
   fun:_ZN5clang7CodeGen15CodeGenFunction22EmitCXXConstructorCallEPKNS_18CXXConstructorDeclENS_11CXXCtorTypeEbbNS0_7AddressERNS0_11CallArgListENS0_12AggValueSlot9Overlap_tENS_14SourceLocationEb
   fun:_ZN5clang7CodeGen15CodeGenFunction22EmitCXXConstructorCallEPKNS_18CXXConstructorDeclENS_11CXXCtorTypeEbbNS0_12AggValueSlotEPKNS_16CXXConstructExprE
   fun:_ZN12_GLOBAL__N_114AggExprEmitter21VisitCXXConstructExprEPKN5clang16CXXConstructExprE
   fun:_ZN5clang7CodeGen15CodeGenFunction11EmitAggExprEPKNS_4ExprENS0_12AggValueSlotE
   fun:_ZL19EmitBaseInitializerRN5clang7CodeGen15CodeGenFunctionEPKNS_13CXXRecordDeclEPNS_18CXXCtorInitializerE
   fun:_ZN5clang7CodeGen15CodeGenFunction16EmitCtorPrologueEPKNS_18CXXConstructorDeclENS_11CXXCtorTypeERNS0_15FunctionArgListE.part.0
   fun:_ZN5clang7CodeGen15CodeGenFunction19EmitConstructorBodyERNS0_15FunctionArgListE
}

{
   Cppyy Suppression
   Memcheck:Free
   fun:free
   obj:*
   fun:_ZNK3Cpp7JitCall6InvokeEPvNS0_7ArgListES1_
   fun:_ZL11WrapperCallPvmS_S_S_
   fun:_ZN5Cppyy5CallVEPvS0_mS0_
   fun:_ZL8GILCallVPvS_PN8CPyCppyy11CallContextE
   fun:_ZN8CPyCppyy12_GLOBAL__N_112VoidExecutor7ExecuteEPvS2_PNS_11CallContextE
   fun:_ZN8CPyCppyy9CPPMethod11ExecuteFastEPvlPNS_11CallContextE
   fun:_ZN8CPyCppyy9CPPMethod7ExecuteEPvlPNS_11CallContextE
   fun:_ZN8CPyCppyy11CPPFunction4CallERPNS_11CPPInstanceEPKP7_objectmS5_PNS_11CallContextE
   fun:_ZN8CPyCppyy12_GLOBAL__N_1L13mp_vectorcallEPNS_11CPPOverloadEPKP7_objectmS4_
   fun:_PyObject_VectorcallTstate
   fun:PyObject_Vectorcall
}

{
   Ubuntu strncmp suppression
   Memcheck:Addr8
   fun:strncmp
   fun:is_dst
   fun:_dl_dst_count
   fun:expand_dynamic_string_token
   fun:fillin_rpath.isra.0
   fun:decompose_rpath
   fun:cache_rpath
   fun:cache_rpath
   fun:_dl_map_object
   fun:openaux
   fun:_dl_catch_exception
   fun:_dl_map_object_deps
   fun:dl_open_worker_begin
   fun:_dl_catch_exception
   fun:dl_open_worker
}

{
   Ubuntu strncmp suppression
   Memcheck:Addr8
   fun:strncmp
   fun:is_dst
   fun:_dl_dst_substitute
   fun:fillin_rpath.isra.0
   fun:decompose_rpath
   fun:cache_rpath
   fun:cache_rpath
   fun:_dl_map_object
   fun:openaux
   fun:_dl_catch_exception
   fun:_dl_map_object_deps
   fun:dl_open_worker_begin
   fun:_dl_catch_exception
   fun:dl_open_worker
}