{
LLVM 19 suppressions : setBits
Memcheck:Cond
fun:_ZN4llvm5APInt7setBitsEjj
fun:_ZL16computeKnownBitsPKN4llvm5ValueERKNS_5APIntERNS_9KnownBitsEjRKNS_13SimplifyQueryE
fun:_ZN4llvm16computeKnownBitsEPKNS_5ValueERNS_9KnownBitsEjRKNS_13SimplifyQueryE
fun:_ZN4llvm16computeKnownBitsEPKNS_5ValueERNS_9KnownBitsERKNS_10DataLayoutEjPNS_15AssumptionCacheEPKNS_11InstructionEPKNS_13DominatorTreeEb
fun:_ZNK4llvm12SelectionDAG13InferPtrAlignENS_7SDValueE
fun:_ZN12_GLOBAL__N_111DAGCombiner9visitLOADEPN4llvm6SDNodeE
fun:_ZN12_GLOBAL__N_111DAGCombiner7combineEPN4llvm6SDNodeE
fun:_ZN12_GLOBAL__N_111DAGCombiner3RunEN4llvm12CombineLevelE
fun:_ZN4llvm12SelectionDAG7CombineENS_12CombineLevelEPNS_9AAResultsENS_15CodeGenOptLevelE
fun:_ZN4llvm16SelectionDAGISel17CodeGenAndEmitDAGEv
fun:_ZN4llvm16SelectionDAGISel20SelectAllBasicBlocksERKNS_8FunctionE
fun:_ZN4llvm16SelectionDAGISel20runOnMachineFunctionERNS_15MachineFunctionE
}

{
LLVM 19 suppressions : setBits
Memcheck:Cond
fun:_ZN4llvm5APInt7setBitsEjj
fun:_ZL16computeKnownBitsPKN4llvm5ValueERKNS_5APIntERNS_9KnownBitsEjRKNS_13SimplifyQueryE
fun:_ZN4llvm16computeKnownBitsEPKNS_5ValueERNS_9KnownBitsEjRKNS_13SimplifyQueryE
fun:_ZN4llvm16computeKnownBitsEPKNS_5ValueERNS_9KnownBitsERKNS_10DataLayoutEjPNS_15AssumptionCacheEPKNS_11InstructionEPKNS_13DominatorTreeEb
fun:_ZNK4llvm12SelectionDAG13InferPtrAlignENS_7SDValueE
fun:_ZN12_GLOBAL__N_111DAGCombiner9visitLOADEPN4llvm6SDNodeE
fun:_ZN12_GLOBAL__N_111DAGCombiner7combineEPN4llvm6SDNodeE
fun:_ZN12_GLOBAL__N_111DAGCombiner3RunEN4llvm12CombineLevelE
fun:_ZN4llvm12SelectionDAG7CombineENS_12CombineLevelEPNS_9AAResultsENS_15CodeGenOptLevelE
fun:_ZN4llvm16SelectionDAGISel17CodeGenAndEmitDAGEv
fun:_ZN4llvm16SelectionDAGISel20SelectAllBasicBlocksERKNS_8FunctionE
fun:_ZN4llvm16SelectionDAGISel20runOnMachineFunctionERNS_15MachineFunctionE
}

{
LLVM 19 suppressions : setBits
Memcheck:Cond
fun:_ZN4llvm5APInt7setBitsEjj
fun:_ZL16computeKnownBitsPKN4llvm5ValueERKNS_5APIntERNS_9KnownBitsEjRKNS_13SimplifyQueryE
fun:_ZN4llvm16computeKnownBitsEPKNS_5ValueERNS_9KnownBitsEjRKNS_13SimplifyQueryE
fun:_ZN4llvm16computeKnownBitsEPKNS_5ValueERNS_9KnownBitsERKNS_10DataLayoutEjPNS_15AssumptionCacheEPKNS_11InstructionEPKNS_13DominatorTreeEb
fun:_ZNK4llvm12SelectionDAG13InferPtrAlignENS_7SDValueE
fun:_ZN12_GLOBAL__N_111DAGCombiner9visitLOADEPN4llvm6SDNodeE
fun:_ZN12_GLOBAL__N_111DAGCombiner7combineEPN4llvm6SDNodeE
fun:_ZN12_GLOBAL__N_111DAGCombiner3RunEN4llvm12CombineLevelE
fun:_ZN4llvm12SelectionDAG7CombineENS_12CombineLevelEPNS_9AAResultsENS_15CodeGenOptLevelE
fun:_ZN4llvm16SelectionDAGISel17CodeGenAndEmitDAGEv
fun:_ZN4llvm16SelectionDAGISel20SelectAllBasicBlocksERKNS_8FunctionE
fun:_ZN4llvm16SelectionDAGISel20runOnMachineFunctionERNS_15MachineFunctionE
}

{
LLVM 19 suppressions : CodeGen
Memcheck:Cond
fun:_ZN5clang7CodeGen13CodeGenModule38SetLLVMFunctionAttributesForDefinitionEPKNS_4DeclEPN4llvm8FunctionE
fun:_ZN5clang7CodeGen13CodeGenModule28EmitGlobalFunctionDefinitionENS_10GlobalDeclEPN4llvm11GlobalValueE
fun:_ZN5clang7CodeGen13CodeGenModule20EmitGlobalDefinitionENS_10GlobalDeclEPN4llvm11GlobalValueE
fun:_ZN5clang7CodeGen13CodeGenModule10EmitGlobalENS_10GlobalDeclE
fun:_ZN5clang7CodeGen13CodeGenModule16EmitTopLevelDeclEPNS_4DeclE.part.0
fun:_ZN12_GLOBAL__N_117CodeGeneratorImpl18HandleTopLevelDeclEN5clang12DeclGroupRefE
fun:_ZN5clang15BackendConsumer18HandleTopLevelDeclENS_12DeclGroupRefE
fun:_ZN5clang22IncrementalASTConsumer18HandleTopLevelDeclENS_12DeclGroupRefE
fun:_ZN5clang17IncrementalParser23ParseOrWrapTopLevelDeclEv
fun:_ZN5clang17IncrementalParser5ParseEN4llvm9StringRefE
fun:_ZN5clang11Interpreter5ParseEN4llvm9StringRefE
fun:_ZN3Cpp11Interpreter5ParseEN4llvm9StringRefE
}

{
LLVM 19 suppressions : CodeGen
Memcheck:Cond
fun:_ZN5clang7CodeGen13CodeGenModule38SetLLVMFunctionAttributesForDefinitionEPKNS_4DeclEPN4llvm8FunctionE
fun:_ZN5clang7CodeGen14CodeGenVTables14maybeEmitThunkENS_10GlobalDeclERKNS_9ThunkInfoEb
fun:_ZN5clang7CodeGen14CodeGenVTables10EmitThunksENS_10GlobalDeclE
fun:_ZN5clang7CodeGen13CodeGenModule20EmitGlobalDefinitionENS_10GlobalDeclEPN4llvm11GlobalValueE
fun:_ZN5clang7CodeGen13CodeGenModule12EmitDeferredEv
fun:_ZN5clang7CodeGen13CodeGenModule12EmitDeferredEv
fun:_ZN5clang7CodeGen13CodeGenModule7ReleaseEv
fun:_ZN12_GLOBAL__N_117CodeGeneratorImpl21HandleTranslationUnitERN5clang10ASTContextE
fun:_ZN5clang15BackendConsumer21HandleTranslationUnitERNS_10ASTContextE
fun:_ZN5clang17IncrementalParser23ParseOrWrapTopLevelDeclEv
fun:_ZN5clang17IncrementalParser5ParseEN4llvm9StringRefE
fun:_ZN5clang11Interpreter5ParseEN4llvm9StringRefE
}

{
LLVM 19 suppressions : CodeGen
Memcheck:Cond
fun:_ZN5clang7CodeGen13CodeGenModule38SetLLVMFunctionAttributesForDefinitionEPKNS_4DeclEPN4llvm8FunctionE
fun:_ZN5clang7CodeGen13CodeGenModule18codegenCXXStructorENS_10GlobalDeclE
fun:_ZN12_GLOBAL__N_113ItaniumCXXABI15emitCXXStructorEN5clang10GlobalDeclE
fun:_ZN5clang7CodeGen13CodeGenModule20EmitGlobalDefinitionENS_10GlobalDeclEPN4llvm11GlobalValueE
fun:_ZN5clang7CodeGen13CodeGenModule12EmitDeferredEv
fun:_ZN5clang7CodeGen13CodeGenModule12EmitDeferredEv
fun:_ZN5clang7CodeGen13CodeGenModule12EmitDeferredEv
fun:_ZN5clang7CodeGen13CodeGenModule12EmitDeferredEv
fun:_ZN5clang7CodeGen13CodeGenModule7ReleaseEv
fun:_ZN12_GLOBAL__N_117CodeGeneratorImpl21HandleTranslationUnitERN5clang10ASTContextE
fun:_ZN5clang15BackendConsumer21HandleTranslationUnitERNS_10ASTContextE
fun:_ZN5clang17IncrementalParser23ParseOrWrapTopLevelDeclEv
}

{
LLVM 19 suppressions : CodeGen
Memcheck:Cond
fun:_ZN5clang7CodeGen13CodeGenModule38SetLLVMFunctionAttributesForDefinitionEPKNS_4DeclEPN4llvm8FunctionE
fun:_ZN5clang7CodeGen13CodeGenModule18codegenCXXStructorENS_10GlobalDeclE
fun:_ZN12_GLOBAL__N_113ItaniumCXXABI15emitCXXStructorEN5clang10GlobalDeclE
fun:_ZN5clang7CodeGen13CodeGenModule20EmitGlobalDefinitionENS_10GlobalDeclEPN4llvm11GlobalValueE
fun:_ZN5clang7CodeGen13CodeGenModule12EmitDeferredEv
fun:_ZN5clang7CodeGen13CodeGenModule12EmitDeferredEv
fun:_ZN5clang7CodeGen13CodeGenModule7ReleaseEv
fun:_ZN12_GLOBAL__N_117CodeGeneratorImpl21HandleTranslationUnitERN5clang10ASTContextE
fun:_ZN5clang15BackendConsumer21HandleTranslationUnitERNS_10ASTContextE
fun:_ZN5clang17IncrementalParser23ParseOrWrapTopLevelDeclEv
fun:_ZN5clang17IncrementalParser5ParseEN4llvm9StringRefE
fun:_ZN5clang11Interpreter5ParseEN4llvm9StringRefE
}

{
LLVM 19 suppressions : CodeGen
Memcheck:Cond
fun:_ZN5clang7CodeGen13CodeGenModule38SetLLVMFunctionAttributesForDefinitionEPKNS_4DeclEPN4llvm8FunctionE
fun:_ZN5clang7CodeGen13CodeGenModule28EmitGlobalFunctionDefinitionENS_10GlobalDeclEPN4llvm11GlobalValueE
fun:_ZN5clang7CodeGen13CodeGenModule20EmitGlobalDefinitionENS_10GlobalDeclEPN4llvm11GlobalValueE
fun:_ZN5clang7CodeGen13CodeGenModule12EmitDeferredEv
fun:_ZN5clang7CodeGen13CodeGenModule12EmitDeferredEv
fun:_ZN5clang7CodeGen13CodeGenModule12EmitDeferredEv
fun:_ZN5clang7CodeGen13CodeGenModule7ReleaseEv
fun:_ZN12_GLOBAL__N_117CodeGeneratorImpl21HandleTranslationUnitERN5clang10ASTContextE
fun:_ZN5clang15BackendConsumer21HandleTranslationUnitERNS_10ASTContextE
fun:_ZN5clang17IncrementalParser23ParseOrWrapTopLevelDeclEv
fun:_ZN5clang17IncrementalParser5ParseEN4llvm9StringRefE
fun:_ZN5clang11Interpreter5ParseEN4llvm9StringRefE
}

