{
   Cling LLVM 18 CodeGen
   Memcheck:Cond
   fun:_ZN5clang7CodeGen13CodeGenModule38SetLLVMFunctionAttributesForDefinitionEPKNS_4DeclEPN4llvm8FunctionE
   fun:_ZN5clang7CodeGen13CodeGenModule28EmitGlobalFunctionDefinitionENS_10GlobalDeclEPN4llvm11GlobalValueE
   fun:_ZN5clang7CodeGen13CodeGenModule20EmitGlobalDefinitionENS_10GlobalDeclEPN4llvm11GlobalValueE
   fun:_ZN5clang7CodeGen13CodeGenModule10EmitGlobalENS_10GlobalDeclE
   fun:_ZN5clang7CodeGen13CodeGenModule16EmitTopLevelDeclEPNS_4DeclE.part.0
   fun:_ZN5clang17CodeGeneratorImpl18HandleTopLevelDeclENS_12DeclGroupRefE
   fun:_ZN5cling13DeclCollector18HandleTopLevelDeclEN5clang12DeclGroupRefE
   fun:_ZN5cling17IncrementalParser23ParseOrWrapTopLevelDeclEv
   fun:_ZN5cling17IncrementalParser13ParseInternalEN4llvm9StringRefE
   fun:_ZN5cling17IncrementalParser7CompileEN4llvm9StringRefERKNS_18CompilationOptionsE
   fun:_ZN5cling11Interpreter7declareERKNSt7__cxx1112basic_stringIcSt11char_traitsIcESaIcEEEPPNS_11TransactionE
   fun:_ZN3Cpp7DeclareEPKcb
}
{
   Cling LLVM 18 CodeGen
   Memcheck:Cond
   fun:_ZN4llvm12ConstantExpr16getGetElementPtrEPNS_4TypeEPNS_8ConstantENS_8ArrayRefIPNS_5ValueEEEbSt8optionalIjES2_
   fun:_ZNK4llvm14ConstantFolder7FoldGEPEPNS_4TypeEPNS_5ValueENS_8ArrayRefIS4_EEb
   fun:_ZN5clang7CodeGen15CodeGenFunction15GetVTTParameterENS_10GlobalDeclEbb
   fun:_ZN12_GLOBAL__N_113ItaniumCXXABI26getImplicitConstructorArgsERN5clang7CodeGen15CodeGenFunctionEPKNS1_18CXXConstructorDeclENS1_11CXXCtorTypeEbb
   fun:_ZN5clang7CodeGen8CGCXXABI26addImplicitConstructorArgsERNS0_15CodeGenFunctionEPKNS_18CXXConstructorDeclENS_11CXXCtorTypeEbbRNS0_11CallArgListE
   fun:_ZN5clang7CodeGen15CodeGenFunction22EmitCXXConstructorCallEPKNS_18CXXConstructorDeclENS_11CXXCtorTypeEbbNS0_7AddressERNS0_11CallArgListENS0_12AggValueSlot9Overlap_tENS_14SourceLocationEb
   fun:_ZN5clang7CodeGen15CodeGenFunction22EmitCXXConstructorCallEPKNS_18CXXConstructorDeclENS_11CXXCtorTypeEbbNS0_12AggValueSlotEPKNS_16CXXConstructExprE
   fun:_ZN5clang7CodeGen15CodeGenFunction20EmitCXXConstructExprEPKNS_16CXXConstructExprENS0_12AggValueSlotE
   fun:_ZN12_GLOBAL__N_114AggExprEmitter21VisitCXXConstructExprEPKN5clang16CXXConstructExprE
   fun:_ZN12_GLOBAL__N_114AggExprEmitter5VisitEPN5clang4ExprE
   fun:_ZN5clang7CodeGen15CodeGenFunction11EmitAggExprEPKNS_4ExprENS0_12AggValueSlotE
   fun:_ZL19EmitBaseInitializerRN5clang7CodeGen15CodeGenFunctionEPKNS_13CXXRecordDeclEPNS_18CXXCtorInitializerE.part.0
}
{
   Cling LLVM 18 CodeGen
   Memcheck:Cond
   fun:_ZN4llvm12ConstantExpr16getGetElementPtrEPNS_4TypeEPNS_8ConstantENS_8ArrayRefIPNS_5ValueEEEbSt8optionalIjES2_
   fun:_ZNK4llvm14ConstantFolder7FoldGEPEPNS_4TypeEPNS_5ValueENS_8ArrayRefIS4_EEb
   fun:_ZN5clang7CodeGen15CodeGenFunction15GetVTTParameterENS_10GlobalDeclEbb
   fun:_ZN12_GLOBAL__N_113ItaniumCXXABI18EmitDestructorCallERN5clang7CodeGen15CodeGenFunctionEPKNS1_17CXXDestructorDeclENS1_11CXXDtorTypeEbbNS2_7AddressENS1_8QualTypeE
   fun:_ZN12_GLOBAL__N_112CallBaseDtor4EmitERN5clang7CodeGen15CodeGenFunctionENS2_12EHScopeStack7Cleanup5FlagsE
   fun:_ZL11EmitCleanupRN5clang7CodeGen15CodeGenFunctionEPNS0_12EHScopeStack7CleanupENS4_5FlagsENS0_7AddressE
   fun:_ZN5clang7CodeGen15CodeGenFunction15PopCleanupBlockEb
   fun:_ZN5clang7CodeGen15CodeGenFunction16PopCleanupBlocksENS0_12EHScopeStack15stable_iteratorESt16initializer_listIPPN4llvm5ValueEE
   fun:_ZN5clang7CodeGen15CodeGenFunction16PopCleanupBlocksENS0_12EHScopeStack15stable_iteratorEmSt16initializer_listIPPN4llvm5ValueEE
   fun:_ZN5clang7CodeGen15CodeGenFunction16RunCleanupsScope12ForceCleanupESt16initializer_listIPPN4llvm5ValueEE
   fun:_ZN5clang7CodeGen15CodeGenFunction18EmitDestructorBodyERNS0_15FunctionArgListE
   fun:_ZN5clang7CodeGen15CodeGenFunction12GenerateCodeENS_10GlobalDeclEPN4llvm8FunctionERKNS0_14CGFunctionInfoE
}
{
   Cling LLVM 18 CodeGen
   Memcheck:Cond
   fun:_ZN4llvm12ConstantExpr16getGetElementPtrEPNS_4TypeEPNS_8ConstantENS_8ArrayRefIPNS_5ValueEEEbSt8optionalIjES2_
   fun:_ZN12_GLOBAL__N_118ItaniumRTTIBuilder13BuildTypeInfoEN5clang8QualTypeEN4llvm11GlobalValue12LinkageTypesENS4_15VisibilityTypesENS4_20DLLStorageClassTypesE
   fun:_ZN12_GLOBAL__N_118ItaniumRTTIBuilder13BuildTypeInfoEN5clang8QualTypeE
   fun:_ZN12_GLOBAL__N_118ItaniumRTTIBuilder13BuildTypeInfoEN5clang8QualTypeEN4llvm11GlobalValue12LinkageTypesENS4_15VisibilityTypesENS4_20DLLStorageClassTypesE
   fun:_ZN12_GLOBAL__N_118ItaniumRTTIBuilder13BuildTypeInfoEN5clang8QualTypeE
   fun:_ZN12_GLOBAL__N_113ItaniumCXXABI23getAddrOfRTTIDescriptorEN5clang8QualTypeE
   fun:_ZN12_GLOBAL__N_113ItaniumCXXABI21emitVTableDefinitionsERN5clang7CodeGen14CodeGenVTablesEPKNS1_13CXXRecordDeclE
   fun:_ZN5clang7CodeGen13CodeGenModule19EmitDeferredVTablesEv
   fun:_ZN5clang7CodeGen13CodeGenModule12EmitDeferredEv
   fun:_ZN5clang7CodeGen13CodeGenModule12EmitDeferredEv
   fun:_ZN5clang7CodeGen13CodeGenModule7ReleaseEv
   fun:_ZN5clang17CodeGeneratorImpl21HandleTranslationUnitERNS_10ASTContextE
}
{
   Cling LLVM 18 CodeGen
   Memcheck:Cond
   fun:_ZN4llvm12ConstantExpr16getGetElementPtrEPNS_4TypeEPNS_8ConstantENS_8ArrayRefIPNS_5ValueEEEbSt8optionalIjES2_
   fun:_ZN12_GLOBAL__N_118ItaniumRTTIBuilder13BuildTypeInfoEN5clang8QualTypeEN4llvm11GlobalValue12LinkageTypesENS4_15VisibilityTypesENS4_20DLLStorageClassTypesE
   fun:_ZN12_GLOBAL__N_118ItaniumRTTIBuilder13BuildTypeInfoEN5clang8QualTypeE
   fun:_ZN12_GLOBAL__N_113ItaniumCXXABI23getAddrOfRTTIDescriptorEN5clang8QualTypeE
   fun:_ZN12_GLOBAL__N_113ItaniumCXXABI21emitVTableDefinitionsERN5clang7CodeGen14CodeGenVTablesEPKNS1_13CXXRecordDeclE
   fun:_ZN5clang7CodeGen13CodeGenModule19EmitDeferredVTablesEv
   fun:_ZN5clang7CodeGen13CodeGenModule12EmitDeferredEv
   fun:_ZN5clang7CodeGen13CodeGenModule12EmitDeferredEv
   fun:_ZN5clang7CodeGen13CodeGenModule12EmitDeferredEv
   fun:_ZN5clang7CodeGen13CodeGenModule7ReleaseEv
   fun:_ZN5clang17CodeGeneratorImpl21HandleTranslationUnitERNS_10ASTContextE
   fun:_ZN5cling17IncrementalParser18codeGenTransactionEPNS_11TransactionE
}
{
   Cling LLVM 18 CodeGen
   Memcheck:Cond
   fun:_ZN5clang7CodeGen13CodeGenModule38SetLLVMFunctionAttributesForDefinitionEPKNS_4DeclEPN4llvm8FunctionE
   fun:_ZN5clang7CodeGen14CodeGenVTables14maybeEmitThunkENS_10GlobalDeclERKNS_9ThunkInfoEb
   fun:_ZN5clang7CodeGen14CodeGenVTables10EmitThunksENS_10GlobalDeclE
   fun:_ZN5clang7CodeGen13CodeGenModule20EmitGlobalDefinitionENS_10GlobalDeclEPN4llvm11GlobalValueE
   fun:_ZN5clang7CodeGen13CodeGenModule12EmitDeferredEv
   fun:_ZN5clang7CodeGen13CodeGenModule12EmitDeferredEv
   fun:_ZN5clang7CodeGen13CodeGenModule7ReleaseEv
   fun:_ZN5clang17CodeGeneratorImpl21HandleTranslationUnitERNS_10ASTContextE
   fun:_ZN5cling17IncrementalParser18codeGenTransactionEPNS_11TransactionE
   fun:_ZN5cling17IncrementalParser17commitTransactionERN4llvm14PointerIntPairIPNS_11TransactionELj2ENS0_12EParseResultENS1_21PointerLikeTypeTraitsIS4_EENS1_18PointerIntPairInfoIS4_Lj2ES7_EEEEb
   fun:_ZN5cling17IncrementalParser7CompileEN4llvm9StringRefERKNS_18CompilationOptionsE
   fun:_ZN5cling11Interpreter7declareERKNSt7__cxx1112basic_stringIcSt11char_traitsIcESaIcEEEPPNS_11TransactionE
}
{
   Cling LLVM 18 CodeGen
   Memcheck:Cond
   fun:_ZN5clang7CodeGen13CodeGenModule38SetLLVMFunctionAttributesForDefinitionEPKNS_4DeclEPN4llvm8FunctionE
   fun:_ZN5clang7CodeGen13CodeGenModule18codegenCXXStructorENS_10GlobalDeclE
   fun:_ZN12_GLOBAL__N_113ItaniumCXXABI15emitCXXStructorEN5clang10GlobalDeclE
   fun:_ZN5clang7CodeGen13CodeGenModule20EmitGlobalDefinitionENS_10GlobalDeclEPN4llvm11GlobalValueE
   fun:_ZN5clang7CodeGen13CodeGenModule12EmitDeferredEv
   fun:_ZN5clang7CodeGen13CodeGenModule7ReleaseEv
   fun:_ZN5clang17CodeGeneratorImpl21HandleTranslationUnitERNS_10ASTContextE
   fun:_ZN5cling17IncrementalParser18codeGenTransactionEPNS_11TransactionE
   fun:_ZN5cling17IncrementalParser17commitTransactionERN4llvm14PointerIntPairIPNS_11TransactionELj2ENS0_12EParseResultENS1_21PointerLikeTypeTraitsIS4_EENS1_18PointerIntPairInfoIS4_Lj2ES7_EEEEb
   fun:_ZN5cling17IncrementalParser7CompileEN4llvm9StringRefERKNS_18CompilationOptionsE
   fun:_ZN5cling11Interpreter7declareERKNSt7__cxx1112basic_stringIcSt11char_traitsIcESaIcEEEPPNS_11TransactionE
   fun:_ZN5cling11Interpreter16DeclareCFunctionEN4llvm9StringRefES2_bRPNS_11TransactionE
}
{
   Cling LLVM 18 CodeGen
   Memcheck:Cond
   fun:_ZN5clang7CodeGen13CodeGenModule38SetLLVMFunctionAttributesForDefinitionEPKNS_4DeclEPN4llvm8FunctionE
   fun:_ZN5clang7CodeGen13CodeGenModule18codegenCXXStructorENS_10GlobalDeclE
   fun:_ZN12_GLOBAL__N_113ItaniumCXXABI15emitCXXStructorEN5clang10GlobalDeclE
   fun:_ZN5clang7CodeGen13CodeGenModule20EmitGlobalDefinitionENS_10GlobalDeclEPN4llvm11GlobalValueE
   fun:_ZN5clang7CodeGen13CodeGenModule12EmitDeferredEv
   fun:_ZN5clang7CodeGen13CodeGenModule12EmitDeferredEv
   fun:_ZN5clang7CodeGen13CodeGenModule7ReleaseEv
   fun:_ZN5clang17CodeGeneratorImpl21HandleTranslationUnitERNS_10ASTContextE
   fun:_ZN5cling17IncrementalParser18codeGenTransactionEPNS_11TransactionE
   fun:_ZN5cling17IncrementalParser17commitTransactionERN4llvm14PointerIntPairIPNS_11TransactionELj2ENS0_12EParseResultENS1_21PointerLikeTypeTraitsIS4_EENS1_18PointerIntPairInfoIS4_Lj2ES7_EEEEb
   fun:_ZN5cling17IncrementalParser7CompileEN4llvm9StringRefERKNS_18CompilationOptionsE
   fun:_ZN5cling11Interpreter7declareERKNSt7__cxx1112basic_stringIcSt11char_traitsIcESaIcEEEPPNS_11TransactionE
}
{
   Cling LLVM 18 CodeGen
   Memcheck:Cond
   fun:_ZN5clang7CodeGen13CodeGenModule38SetLLVMFunctionAttributesForDefinitionEPKNS_4DeclEPN4llvm8FunctionE
   fun:_ZN5clang7CodeGen13CodeGenModule28EmitGlobalFunctionDefinitionENS_10GlobalDeclEPN4llvm11GlobalValueE
   fun:_ZN5clang7CodeGen13CodeGenModule20EmitGlobalDefinitionENS_10GlobalDeclEPN4llvm11GlobalValueE
   fun:_ZN5clang7CodeGen13CodeGenModule12EmitDeferredEv
   fun:_ZN5clang7CodeGen13CodeGenModule12EmitDeferredEv
   fun:_ZN5clang7CodeGen13CodeGenModule12EmitDeferredEv
   fun:_ZN5clang7CodeGen13CodeGenModule7ReleaseEv
   fun:_ZN5clang17CodeGeneratorImpl21HandleTranslationUnitERNS_10ASTContextE
   fun:_ZN5cling17IncrementalParser18codeGenTransactionEPNS_11TransactionE
   fun:_ZN5cling17IncrementalParser17commitTransactionERN4llvm14PointerIntPairIPNS_11TransactionELj2ENS0_12EParseResultENS1_21PointerLikeTypeTraitsIS4_EENS1_18PointerIntPairInfoIS4_Lj2ES7_EEEEb
   fun:_ZN5cling17IncrementalParser7CompileEN4llvm9StringRefERKNS_18CompilationOptionsE
   fun:_ZN5cling11Interpreter7declareERKNSt7__cxx1112basic_stringIcSt11char_traitsIcESaIcEEEPPNS_11TransactionE
}
{
   Cling LLVM 18 CodeGen
   Memcheck:Cond
   fun:_ZN4llvm12ConstantExpr16getGetElementPtrEPNS_4TypeEPNS_8ConstantENS_8ArrayRefIPNS_5ValueEEEbSt8optionalIjES2_
   fun:_ZN12_GLOBAL__N_118ItaniumRTTIBuilder13BuildTypeInfoEN5clang8QualTypeEN4llvm11GlobalValue12LinkageTypesENS4_15VisibilityTypesENS4_20DLLStorageClassTypesE
   fun:_ZN12_GLOBAL__N_118ItaniumRTTIBuilder13BuildTypeInfoEN5clang8QualTypeE
   fun:_ZN12_GLOBAL__N_118ItaniumRTTIBuilder13BuildTypeInfoEN5clang8QualTypeEN4llvm11GlobalValue12LinkageTypesENS4_15VisibilityTypesENS4_20DLLStorageClassTypesE
   fun:_ZN12_GLOBAL__N_118ItaniumRTTIBuilder13BuildTypeInfoEN5clang8QualTypeE
   fun:_ZN12_GLOBAL__N_113ItaniumCXXABI23getAddrOfRTTIDescriptorEN5clang8QualTypeE
   fun:_ZN12_GLOBAL__N_113ItaniumCXXABI21emitVTableDefinitionsERN5clang7CodeGen14CodeGenVTablesEPKNS1_13CXXRecordDeclE
   fun:_ZN5clang7CodeGen13CodeGenModule19EmitDeferredVTablesEv
   fun:_ZN5clang7CodeGen13CodeGenModule12EmitDeferredEv
   fun:_ZN5clang7CodeGen13CodeGenModule12EmitDeferredEv
   fun:_ZN5clang7CodeGen13CodeGenModule12EmitDeferredEv
   fun:_ZN5clang7CodeGen13CodeGenModule7ReleaseEv
}
{
   Cling LLVM 18 CodeGen
   Memcheck:Cond
   fun:_ZN4llvm12ConstantExpr16getGetElementPtrEPNS_4TypeEPNS_8ConstantENS_8ArrayRefIPNS_5ValueEEEbSt8optionalIjES2_
   fun:_ZN12_GLOBAL__N_118ItaniumRTTIBuilder13BuildTypeInfoEN5clang8QualTypeEN4llvm11GlobalValue12LinkageTypesENS4_15VisibilityTypesENS4_20DLLStorageClassTypesE
   fun:_ZN12_GLOBAL__N_118ItaniumRTTIBuilder13BuildTypeInfoEN5clang8QualTypeE
   fun:_ZN12_GLOBAL__N_118ItaniumRTTIBuilder20BuildPointerTypeInfoEN5clang8QualTypeE
   fun:_ZN12_GLOBAL__N_118ItaniumRTTIBuilder13BuildTypeInfoEN5clang8QualTypeEN4llvm11GlobalValue12LinkageTypesENS4_15VisibilityTypesENS4_20DLLStorageClassTypesE
   fun:_ZN12_GLOBAL__N_118ItaniumRTTIBuilder13BuildTypeInfoEN5clang8QualTypeE
   fun:_ZN12_GLOBAL__N_113ItaniumCXXABI23getAddrOfRTTIDescriptorEN5clang8QualTypeE
   fun:_ZN5clang7CodeGen15CodeGenFunction17EmitCXXTypeidExprEPKNS_13CXXTypeidExprE
   fun:_ZN5clang7CodeGen15CodeGenFunction19EmitCXXTypeidLValueEPKNS_13CXXTypeidExprE
   fun:_ZN5clang7CodeGen15CodeGenFunction16EmitLValueHelperEPKNS_4ExprENS0_14KnownNonNull_tE
   fun:_ZN5clang7CodeGen15CodeGenFunction10EmitLValueEPKNS_4ExprENS0_14KnownNonNull_tE
   fun:_ZN5clang15StmtVisitorBaseISt11add_pointerN12_GLOBAL__N_117ScalarExprEmitterEPN4llvm5ValueEJEE5VisitEPNS_4StmtE
}
{
   JitCall free call
   Memcheck:Free
   fun:free
   obj:*
   fun:_ZNK3Cpp7JitCall6InvokeEPvNS0_7ArgListES1_
   fun:_ZL11WrapperCallPvmS_S_S_
   fun:_ZN5Cppyy5CallVEPvS0_mS0_
   fun:_ZL8GILCallVPvS_PN8CPyCppyy11CallContextE
   fun:_ZN8CPyCppyy12_GLOBAL__N_112VoidExecutor7ExecuteEPvS2_PNS_11CallContextE
   fun:_ZN8CPyCppyy9CPPMethod11ExecuteFastEPvlPNS_11CallContextE
   fun:_ZN8CPyCppyy9CPPMethod7ExecuteEPvlPNS_11CallContextE
   fun:_ZN8CPyCppyy11CPPFunction4CallERPNS_11CPPInstanceEPKP7_objectmS5_PNS_11CallContextE
   fun:_ZN8CPyCppyy12_GLOBAL__N_1L13mp_vectorcallEPNS_11CPPOverloadEPKP7_objectmS4_
   fun:_PyObject_VectorcallTstate
   fun:PyObject_Vectorcall
}

